target datalayout = "e-m:e-p270:32:32-p271:32:32-p272:64:64-i64:64-i128:128-f80:128-n8:16:32:64-S128"
target triple = "x86_64-unknown-linux-gnu"

%struct.zlib_filefunc_def_s = type { ptr, ptr, ptr, ptr, ptr, ptr, ptr, ptr }

; Function Attrs: mustprogress nounwind uwtable
define hidden void @_ZN6Assimp14IOSystem2Unzip3getEPNS_8IOSystemE(ptr noalias sret(%struct.zlib_filefunc_def_s) align 8 %agg.result, ptr noundef %pIOHandler) #0 align 2 {
entry:
  %pIOHandler.addr = alloca ptr, align 8
  store ptr %pIOHandler, ptr %pIOHandler.addr, align 8
  %zopen_file = getelementptr inbounds %struct.zlib_filefunc_def_s, ptr %agg.result, i32 0, i32 0
  store ptr @_ZN6Assimp14IOSystem2Unzip4openEPvPKci, ptr %zopen_file, align 8
  %zread_file = getelementptr inbounds %struct.zlib_filefunc_def_s, ptr %agg.result, i32 0, i32 1
  store ptr @_ZN6Assimp14IOSystem2Unzip4readEPvS1_S1_m, ptr %zread_file, align 8
  %zwrite_file = getelementptr inbounds %struct.zlib_filefunc_def_s, ptr %agg.result, i32 0, i32 2
  store ptr @_ZN6Assimp14IOSystem2Unzip5writeEPvS1_PKvm, ptr %zwrite_file, align 8
  %ztell_file = getelementptr inbounds %struct.zlib_filefunc_def_s, ptr %agg.result, i32 0, i32 3
  store ptr @_ZN6Assimp14IOSystem2Unzip4tellEPvS1_, ptr %ztell_file, align 8
  %zseek_file = getelementptr inbounds %struct.zlib_filefunc_def_s, ptr %agg.result, i32 0, i32 4
  store ptr @_ZN6Assimp14IOSystem2Unzip4seekEPvS1_mi, ptr %zseek_file, align 8
  %zclose_file = getelementptr inbounds %struct.zlib_filefunc_def_s, ptr %agg.result, i32 0, i32 5
  store ptr @_ZN6Assimp14IOSystem2Unzip5closeEPvS1_, ptr %zclose_file, align 8
  %zerror_file = getelementptr inbounds %struct.zlib_filefunc_def_s, ptr %agg.result, i32 0, i32 6
  store ptr @_ZN6Assimp14IOSystem2Unzip9testerrorEPvS1_, ptr %zerror_file, align 8
  %0 = load ptr, ptr %pIOHandler.addr, align 8
  %opaque = getelementptr inbounds %struct.zlib_filefunc_def_s, ptr %agg.result, i32 0, i32 7
  store ptr %0, ptr %opaque, align 8
  ret void
}