; Function Attrs: mustprogress nofree norecurse nosync nounwind willreturn memory(argmem: write) uwtable
define hidden void @_ZN6Assimp14IOSystem2Unzip3getEPNS_8IOSystemE(ptr noalias nocapture writeonly sret(%struct.zlib_filefunc_def_s) align 8 %agg.result, ptr noundef %pIOHandler) local_unnamed_addr #9 align 2 {
entry:
  store ptr @_ZN6Assimp14IOSystem2Unzip4openEPvPKci, ptr %agg.result, align 8
  %zread_file = getelementptr inbounds i8, ptr %agg.result, i64 8
  store ptr @_ZN6Assimp14IOSystem2Unzip4readEPvS1_S1_m, ptr %zread_file, align 8
  %zwrite_file = getelementptr inbounds i8, ptr %agg.result, i64 16
  store ptr @_ZN6Assimp14IOSystem2Unzip5writeEPvS1_PKvm, ptr %zwrite_file, align 8
  %ztell_file = getelementptr inbounds i8, ptr %agg.result, i64 24
  store ptr @_ZN6Assimp14IOSystem2Unzip4tellEPvS1_, ptr %ztell_file, align 8
  %zseek_file = getelementptr inbounds i8, ptr %agg.result, i64 32
  store ptr @_ZN6Assimp14IOSystem2Unzip4seekEPvS1_mi, ptr %zseek_file, align 8
  %zclose_file = getelementptr inbounds i8, ptr %agg.result, i64 40
  store ptr @_ZN6Assimp14IOSystem2Unzip5closeEPvS1_, ptr %zclose_file, align 8
  %zerror_file = getelementptr inbounds i8, ptr %agg.result, i64 48
  store ptr @_ZN6Assimp14IOSystem2Unzip9testerrorEPvS1_, ptr %zerror_file, align 8
  %opaque = getelementptr inbounds i8, ptr %agg.result, i64 56
  store ptr %pIOHandler, ptr %opaque, align 8
  ret void
}